target datalayout = "e-m:e-p270:32:32-p271:32:32-p272:64:64-i64:64-i128:128-f80:128-n8:16:32:64-S128"
target triple = "x86_64-pc-linux-gnu"

%class.ArchiveBuilder = type { ptr, ptr, ptr, ptr, i32, i64, ptr, ptr, ptr, ptr, ptr, ptr, i64, %class.ReservedSpace, %class.VirtualSpace, %class.DumpRegion, %class.DumpRegion, %class.CHeapBitMap, %class.CHeapBitMap, %class.CHeapBitMap, %"class.ArchiveBuilder::SourceObjList", %"class.ArchiveBuilder::SourceObjList", %class.ResizeableResourceHashtable, %class.ResizeableResourceHashtable.0, ptr, ptr, i32, %class.DumpAllocStats, i64, i64, i64 }
%class.ReservedSpace = type <{ ptr, i64, i64, i64, i64, i8, [3 x i8], i32, i8, [7 x i8] }>
%class.VirtualSpace = type { ptr, ptr, ptr, ptr, i8, i8, ptr, ptr, ptr, ptr, ptr, ptr, i64, i64, i64 }
%class.DumpRegion = type { ptr, ptr, ptr, ptr, i64, i8, ptr, ptr }
%class.CHeapBitMap = type <{ %class.GrowableBitMap, i8, [7 x i8] }>
%class.GrowableBitMap = type { %class.BitMap }
%class.BitMap = type { ptr, i64 }
%"class.ArchiveBuilder::SourceObjList" = type { i64, ptr, %class.CHeapBitMap }
%class.ResizeableResourceHashtable = type { %class.ResourceHashtableBase.base, i32 }
%class.ResourceHashtableBase.base = type <{ %class.ResizeableResourceHashtableStorage, i32 }>
%class.ResizeableResourceHashtableStorage = type { i32, ptr }
%class.ResizeableResourceHashtable.0 = type { %class.ResourceHashtableBase.base.3, i32 }
%class.ResourceHashtableBase.base.3 = type <{ %class.ResizeableResourceHashtableStorage.2, i32 }>
%class.ResizeableResourceHashtableStorage.2 = type { i32, ptr }
%class.DumpAllocStats = type { %class.CompactHashtableStats, %class.CompactHashtableStats, [2 x [23 x i32]], [2 x [23 x i32]], i32, i32, i32, i32, i32, i32, i32, i32, i32 }
%class.CompactHashtableStats = type { i32, i32, i32, i32 }

; Function Attrs: mustprogress nounwind uwtable
define linkonce_odr hidden noundef ptr @_ZNK14ArchiveBuilder12to_requestedIPhEET_S2_(ptr noundef nonnull align 8 dereferenceable(1080) %0, ptr noundef %1) #1 comdat align 2 {
  %3 = alloca ptr, align 8
  %4 = alloca ptr, align 8
  store ptr %0, ptr %3, align 8
  store ptr %1, ptr %4, align 8
  %5 = load ptr, ptr %3, align 8
  %6 = load ptr, ptr %4, align 8
  %7 = getelementptr inbounds %class.ArchiveBuilder, ptr %5, i32 0, i32 12
  %8 = load i64, ptr %7, align 8
  %9 = getelementptr inbounds i8, ptr %6, i64 %8
  ret ptr %9
}

; Function Attrs: mustprogress nounwind uwtable
define hidden noundef i64 @_ZNK14ArchiveBuilder16buffer_to_offsetEPh(ptr noundef nonnull align 8 dereferenceable(1080) %0, ptr noundef %1) #1 align 2 {
  %3 = alloca ptr, align 8
  %4 = alloca ptr, align 8
  %5 = alloca ptr, align 8
  store ptr %0, ptr %3, align 8
  store ptr %1, ptr %4, align 8
  %6 = load ptr, ptr %3, align 8
  %7 = load ptr, ptr %4, align 8
  %8 = call noundef ptr @_ZNK14ArchiveBuilder12to_requestedIPhEET_S2_(ptr noundef nonnull align 8 dereferenceable(1080) %6, ptr noundef %7)
  store ptr %8, ptr %5, align 8
  %9 = load ptr, ptr %5, align 8
  %10 = getelementptr inbounds %class.ArchiveBuilder, ptr %6, i32 0, i32 6
  %11 = load ptr, ptr %10, align 8
  %12 = ptrtoint ptr %9 to i64
  %13 = ptrtoint ptr %11 to i64
  %14 = sub i64 %12, %13
  ret i64 %14
}